target datalayout = "e-m:e-p270:32:32-p271:32:32-p272:64:64-i64:64-i128:128-f80:128-n8:16:32:64-S128"
target triple = "x86_64-pc-linux-gnu"

%struct.evp_keymgmt_st = type { i32, i32, i32, ptr, ptr, ptr, %struct.CRYPTO_REF_COUNT, ptr, ptr, ptr, ptr, ptr, ptr, ptr, ptr, ptr, ptr, ptr, ptr, ptr, ptr, ptr, ptr, ptr, ptr, ptr, ptr, ptr, ptr, ptr, ptr, ptr, ptr }
%struct.CRYPTO_REF_COUNT = type { i32 }

; Function Attrs: nounwind uwtable
define i32 @evp_keymgmt_validate(ptr noundef %0, ptr noundef %1, i32 noundef %2, i32 noundef %3) #0 {
  %5 = alloca i32, align 4
  %6 = alloca ptr, align 8
  %7 = alloca ptr, align 8
  %8 = alloca i32, align 4
  %9 = alloca i32, align 4
  store ptr %0, ptr %6, align 8, !tbaa !18
  store ptr %1, ptr %7, align 8, !tbaa !58
  store i32 %2, ptr %8, align 4, !tbaa !10
  store i32 %3, ptr %9, align 4, !tbaa !10
  %10 = load ptr, ptr %6, align 8, !tbaa !18
  %11 = getelementptr inbounds nuw %struct.evp_keymgmt_st, ptr %10, i32 0, i32 24
  %12 = load ptr, ptr %11, align 8, !tbaa !46
  %13 = icmp eq ptr %12, null
  br i1 %13, label %14, label %15

14:                                               ; preds = %4
  store i32 1, ptr %5, align 4
  br label %23

15:                                               ; preds = %4
  %16 = load ptr, ptr %6, align 8, !tbaa !18
  %17 = getelementptr inbounds nuw %struct.evp_keymgmt_st, ptr %16, i32 0, i32 24
  %18 = load ptr, ptr %17, align 8, !tbaa !46
  %19 = load ptr, ptr %7, align 8, !tbaa !58
  %20 = load i32, ptr %8, align 4, !tbaa !10
  %21 = load i32, ptr %9, align 4, !tbaa !10
  %22 = call i32 %18(ptr noundef %19, i32 noundef %20, i32 noundef %21)
  store i32 %22, ptr %5, align 4
  br label %23

23:                                               ; preds = %15, %14
  %24 = load i32, ptr %5, align 4
  ret i32 %24
}