; Function Attrs: nounwind uwtable
define i32 @evp_keymgmt_validate(ptr noundef readonly captures(none) %0, ptr noundef %1, i32 noundef %2, i32 noundef %3) local_unnamed_addr #0 {
  %5 = getelementptr inbounds nuw i8, ptr %0, i64 184
  %6 = load ptr, ptr %5, align 8, !tbaa !41
  %7 = icmp eq ptr %6, null
  br i1 %7, label %10, label %8

8:                                                ; preds = %4
  %9 = tail call i32 %6(ptr noundef %1, i32 noundef %2, i32 noundef %3) #5
  br label %10

10:                                               ; preds = %4, %8
  %.0 = phi i32 [ %9, %8 ], [ 1, %4 ]
  ret i32 %.0
}